; Function Attrs: mustprogress nofree norecurse nosync nounwind willreturn memory(argmem: readwrite) uwtable
define dso_local void @_ZN5ImageC2ERKN9Imath_3_23BoxINS0_4Vec2IiEEEE(ptr noundef nonnull align 8 dereferenceable(64) initializes((0, 16), (24, 28), (32, 40)) %0, ptr noundef nonnull readonly align 4 captures(none) dereferenceable(16) %1) unnamed_addr #8 align 2 personality ptr @__gxx_personality_v0 {
  %3 = load i32, ptr %1, align 4, !tbaa !21
  store i32 %3, ptr %0, align 8, !tbaa !21
  %4 = getelementptr inbounds nuw i8, ptr %0, i64 4
  %5 = getelementptr inbounds nuw i8, ptr %1, i64 4
  %6 = load i32, ptr %5, align 4, !tbaa !24
  store i32 %6, ptr %4, align 4, !tbaa !24
  %7 = getelementptr inbounds nuw i8, ptr %0, i64 8
  %8 = getelementptr inbounds nuw i8, ptr %1, i64 8
  %9 = load i32, ptr %8, align 4, !tbaa !21
  store i32 %9, ptr %7, align 8, !tbaa !21
  %10 = getelementptr inbounds nuw i8, ptr %0, i64 12
  %11 = getelementptr inbounds nuw i8, ptr %1, i64 12
  %12 = load i32, ptr %11, align 4, !tbaa !24
  store i32 %12, ptr %10, align 4, !tbaa !24
  %13 = getelementptr inbounds nuw i8, ptr %0, i64 24
  store i32 0, ptr %13, align 8, !tbaa !11
  %14 = getelementptr inbounds nuw i8, ptr %0, i64 32
  store ptr null, ptr %14, align 8, !tbaa !17
  %15 = getelementptr inbounds nuw i8, ptr %0, i64 40
  store ptr %13, ptr %15, align 8, !tbaa !18
  %16 = getelementptr inbounds nuw i8, ptr %0, i64 48
  store ptr %13, ptr %16, align 8, !tbaa !19
  %17 = getelementptr inbounds nuw i8, ptr %0, i64 56
  store i64 0, ptr %17, align 8, !tbaa !20
  ret void
}